; Function Attrs: nounwind uwtable
define hidden i32 @aom_rb_read_unsigned_literal(ptr noundef captures(none) %0, i32 noundef %1) local_unnamed_addr #1 {
  %3 = icmp sgt i32 %1, 0
  br i1 %3, label %.lr.ph, label %._crit_edge

.lr.ph:                                           ; preds = %2
  %4 = getelementptr inbounds nuw i8, ptr %0, i64 16
  %5 = getelementptr inbounds nuw i8, ptr %0, i64 8
  %6 = getelementptr inbounds nuw i8, ptr %0, i64 32
  %7 = getelementptr inbounds nuw i8, ptr %0, i64 24
  br label %8

8:                                                ; preds = %.lr.ph, %aom_rb_read_bit.exit
  %.0.in8 = phi i32 [ %1, %.lr.ph ], [ %.0, %aom_rb_read_bit.exit ]
  %.067 = phi i32 [ 0, %.lr.ph ], [ %29, %aom_rb_read_bit.exit ]
  %.0 = add nsw i32 %.0.in8, -1
  %9 = load i32, ptr %4, align 8
  %10 = lshr i32 %9, 3
  %11 = load ptr, ptr %0, align 8
  %12 = zext nneg i32 %10 to i64
  %13 = getelementptr inbounds nuw i8, ptr %11, i64 %12
  %14 = load ptr, ptr %5, align 8
  %15 = icmp ult ptr %13, %14
  br i1 %15, label %16, label %24

16:                                               ; preds = %8
  %17 = and i32 %9, 7
  %18 = xor i32 %17, 7
  %19 = load i8, ptr %13, align 1
  %20 = zext i8 %19 to i32
  %21 = lshr i32 %20, %18
  %22 = and i32 %21, 1
  %23 = add i32 %9, 1
  store i32 %23, ptr %4, align 8
  br label %aom_rb_read_bit.exit

24:                                               ; preds = %8
  %25 = load ptr, ptr %6, align 8
  %.not.i = icmp eq ptr %25, null
  br i1 %.not.i, label %aom_rb_read_bit.exit, label %26

26:                                               ; preds = %24
  %27 = load ptr, ptr %7, align 8
  tail call void %25(ptr noundef %27) #3
  br label %aom_rb_read_bit.exit

aom_rb_read_bit.exit:                             ; preds = %16, %24, %26
  %.0.i = phi i32 [ %22, %16 ], [ 0, %26 ], [ 0, %24 ]
  %28 = shl nuw i32 %.0.i, %.0
  %29 = or i32 %28, %.067
  %30 = icmp samesign ugt i32 %.0.in8, 1
  br i1 %30, label %8, label %._crit_edge, !llvm.loop !6

._crit_edge:                                      ; preds = %aom_rb_read_bit.exit, %2
  %.06.lcssa = phi i32 [ 0, %2 ], [ %29, %aom_rb_read_bit.exit ]
  ret i32 %.06.lcssa
}